target datalayout = "e-m:e-p270:32:32-p271:32:32-p272:64:64-i64:64-i128:128-f80:128-n8:16:32:64-S128"
target triple = "x86_64-pc-linux-gnu"

%struct.rlglData = type { ptr, %struct.rlRenderBatch, %struct.anon, %struct.anon.0 }
%struct.rlRenderBatch = type { i32, i32, ptr, ptr, i32, float }
%struct.anon = type { i32, float, float, float, float, float, i8, i8, i8, i8, i32, ptr, %struct.Matrix, %struct.Matrix, %struct.Matrix, i8, [32 x %struct.Matrix], i32, i32, [4 x i32], i32, i32, i32, ptr, i32, ptr, i8, [2 x %struct.Matrix], [2 x %struct.Matrix], i32, i32, i32, i32, i32, i32, i32, i32, i32, i32, i8, i32, i32 }
%struct.Matrix = type { float, float, float, float, float, float, float, float, float, float, float, float, float, float, float, float }
%struct.anon.0 = type { i8, i8, i8, i8, i8, i8, i8, i8, i8, i8, i8, i8, i8, i8, i8, i8, float, i32 }

@glad_glBlendEquation = global ptr null, align 8
@glad_glBlendEquationSeparate = global ptr null, align 8
@glad_glBlendFunc = global ptr null, align 8
@glad_glBlendFuncSeparate = global ptr null, align 8
@RLGL = internal global %struct.rlglData zeroinitializer, align 8

; Function Attrs: nounwind uwtable
define void @rlSetBlendMode(i32 noundef %0) #0 {
  %2 = alloca i32, align 4
  store i32 %0, ptr %2, align 4
  %3 = load i32, ptr getelementptr inbounds nuw (%struct.anon, ptr getelementptr inbounds nuw (%struct.rlglData, ptr @RLGL, i32 0, i32 2), i32 0, i32 29), align 4
  %4 = load i32, ptr %2, align 4
  %5 = icmp ne i32 %3, %4
  br i1 %5, label %15, label %6

6:                                                ; preds = %1
  %7 = load i32, ptr %2, align 4
  %8 = icmp eq i32 %7, 6
  br i1 %8, label %12, label %9

9:                                                ; preds = %6
  %10 = load i32, ptr %2, align 4
  %11 = icmp eq i32 %10, 7
  br i1 %11, label %12, label %54

12:                                               ; preds = %9, %6
  %13 = load i8, ptr getelementptr inbounds nuw (%struct.anon, ptr getelementptr inbounds nuw (%struct.rlglData, ptr @RLGL, i32 0, i32 2), i32 0, i32 39), align 4, !range !3, !noundef !4
  %14 = trunc i8 %13 to i1
  br i1 %14, label %15, label %54

15:                                               ; preds = %12, %1
  %16 = load ptr, ptr @RLGL, align 8
  call void @rlDrawRenderBatch(ptr noundef %16)
  %17 = load i32, ptr %2, align 4
  switch i32 %17, label %51 [
    i32 0, label %18
    i32 1, label %21
    i32 2, label %24
    i32 3, label %27
    i32 4, label %30
    i32 5, label %33
    i32 6, label %36
    i32 7, label %42
  ]

18:                                               ; preds = %15
  %19 = load ptr, ptr @glad_glBlendFunc, align 8
  call void %19(i32 noundef 770, i32 noundef 771)
  %20 = load ptr, ptr @glad_glBlendEquation, align 8
  call void %20(i32 noundef 32774)
  br label %52

21:                                               ; preds = %15
  %22 = load ptr, ptr @glad_glBlendFunc, align 8
  call void %22(i32 noundef 770, i32 noundef 1)
  %23 = load ptr, ptr @glad_glBlendEquation, align 8
  call void %23(i32 noundef 32774)
  br label %52

24:                                               ; preds = %15
  %25 = load ptr, ptr @glad_glBlendFunc, align 8
  call void %25(i32 noundef 774, i32 noundef 771)
  %26 = load ptr, ptr @glad_glBlendEquation, align 8
  call void %26(i32 noundef 32774)
  br label %52

27:                                               ; preds = %15
  %28 = load ptr, ptr @glad_glBlendFunc, align 8
  call void %28(i32 noundef 1, i32 noundef 1)
  %29 = load ptr, ptr @glad_glBlendEquation, align 8
  call void %29(i32 noundef 32774)
  br label %52

30:                                               ; preds = %15
  %31 = load ptr, ptr @glad_glBlendFunc, align 8
  call void %31(i32 noundef 1, i32 noundef 1)
  %32 = load ptr, ptr @glad_glBlendEquation, align 8
  call void %32(i32 noundef 32778)
  br label %52

33:                                               ; preds = %15
  %34 = load ptr, ptr @glad_glBlendFunc, align 8
  call void %34(i32 noundef 1, i32 noundef 771)
  %35 = load ptr, ptr @glad_glBlendEquation, align 8
  call void %35(i32 noundef 32774)
  br label %52

36:                                               ; preds = %15
  %37 = load ptr, ptr @glad_glBlendFunc, align 8
  %38 = load i32, ptr getelementptr inbounds nuw (%struct.anon, ptr getelementptr inbounds nuw (%struct.rlglData, ptr @RLGL, i32 0, i32 2), i32 0, i32 30), align 8
  %39 = load i32, ptr getelementptr inbounds nuw (%struct.anon, ptr getelementptr inbounds nuw (%struct.rlglData, ptr @RLGL, i32 0, i32 2), i32 0, i32 31), align 4
  call void %37(i32 noundef %38, i32 noundef %39)
  %40 = load ptr, ptr @glad_glBlendEquation, align 8
  %41 = load i32, ptr getelementptr inbounds nuw (%struct.anon, ptr getelementptr inbounds nuw (%struct.rlglData, ptr @RLGL, i32 0, i32 2), i32 0, i32 32), align 8
  call void %40(i32 noundef %41)
  br label %52

42:                                               ; preds = %15
  %43 = load ptr, ptr @glad_glBlendFuncSeparate, align 8
  %44 = load i32, ptr getelementptr inbounds nuw (%struct.anon, ptr getelementptr inbounds nuw (%struct.rlglData, ptr @RLGL, i32 0, i32 2), i32 0, i32 33), align 4
  %45 = load i32, ptr getelementptr inbounds nuw (%struct.anon, ptr getelementptr inbounds nuw (%struct.rlglData, ptr @RLGL, i32 0, i32 2), i32 0, i32 34), align 8
  %46 = load i32, ptr getelementptr inbounds nuw (%struct.anon, ptr getelementptr inbounds nuw (%struct.rlglData, ptr @RLGL, i32 0, i32 2), i32 0, i32 35), align 4
  %47 = load i32, ptr getelementptr inbounds nuw (%struct.anon, ptr getelementptr inbounds nuw (%struct.rlglData, ptr @RLGL, i32 0, i32 2), i32 0, i32 36), align 8
  call void %43(i32 noundef %44, i32 noundef %45, i32 noundef %46, i32 noundef %47)
  %48 = load ptr, ptr @glad_glBlendEquationSeparate, align 8
  %49 = load i32, ptr getelementptr inbounds nuw (%struct.anon, ptr getelementptr inbounds nuw (%struct.rlglData, ptr @RLGL, i32 0, i32 2), i32 0, i32 37), align 4
  %50 = load i32, ptr getelementptr inbounds nuw (%struct.anon, ptr getelementptr inbounds nuw (%struct.rlglData, ptr @RLGL, i32 0, i32 2), i32 0, i32 38), align 8
  call void %48(i32 noundef %49, i32 noundef %50)
  br label %52

51:                                               ; preds = %15
  br label %52

52:                                               ; preds = %51, %42, %36, %33, %30, %27, %24, %21, %18
  %53 = load i32, ptr %2, align 4
  store i32 %53, ptr getelementptr inbounds nuw (%struct.anon, ptr getelementptr inbounds nuw (%struct.rlglData, ptr @RLGL, i32 0, i32 2), i32 0, i32 29), align 4
  store i8 0, ptr getelementptr inbounds nuw (%struct.anon, ptr getelementptr inbounds nuw (%struct.rlglData, ptr @RLGL, i32 0, i32 2), i32 0, i32 39), align 4
  br label %54

54:                                               ; preds = %52, %12, %9
  ret void
}