; Function Attrs: nounwind uwtable
define void @rlSetBlendMode(i32 noundef %0) local_unnamed_addr #0 {
  %2 = load i32, ptr getelementptr inbounds nuw (i8, ptr @RLGL, i64 2644), align 4
  %.not = icmp eq i32 %2, %0
  br i1 %.not, label %3, label %8

3:                                                ; preds = %1
  %4 = and i32 %0, -2
  %or.cond = icmp eq i32 %4, 6
  br i1 %or.cond, label %5, label %44

5:                                                ; preds = %3
  %6 = load i8, ptr getelementptr inbounds nuw (i8, ptr @RLGL, i64 2684), align 4, !range !3, !noundef !4
  %7 = trunc nuw i8 %6 to i1
  br i1 %7, label %8, label %44

8:                                                ; preds = %5, %1
  %9 = load ptr, ptr @RLGL, align 8
  tail call void @rlDrawRenderBatch(ptr noundef %9)
  switch i32 %0, label %43 [
    i32 0, label %10
    i32 1, label %13
    i32 2, label %16
    i32 3, label %19
    i32 4, label %22
    i32 5, label %25
    i32 6, label %28
    i32 7, label %34
  ]

10:                                               ; preds = %8
  %11 = load ptr, ptr @glad_glBlendFunc, align 8
  tail call void %11(i32 noundef 770, i32 noundef 771) #56
  %12 = load ptr, ptr @glad_glBlendEquation, align 8
  tail call void %12(i32 noundef 32774) #56
  br label %43

13:                                               ; preds = %8
  %14 = load ptr, ptr @glad_glBlendFunc, align 8
  tail call void %14(i32 noundef 770, i32 noundef 1) #56
  %15 = load ptr, ptr @glad_glBlendEquation, align 8
  tail call void %15(i32 noundef 32774) #56
  br label %43

16:                                               ; preds = %8
  %17 = load ptr, ptr @glad_glBlendFunc, align 8
  tail call void %17(i32 noundef 774, i32 noundef 771) #56
  %18 = load ptr, ptr @glad_glBlendEquation, align 8
  tail call void %18(i32 noundef 32774) #56
  br label %43

19:                                               ; preds = %8
  %20 = load ptr, ptr @glad_glBlendFunc, align 8
  tail call void %20(i32 noundef 1, i32 noundef 1) #56
  %21 = load ptr, ptr @glad_glBlendEquation, align 8
  tail call void %21(i32 noundef 32774) #56
  br label %43

22:                                               ; preds = %8
  %23 = load ptr, ptr @glad_glBlendFunc, align 8
  tail call void %23(i32 noundef 1, i32 noundef 1) #56
  %24 = load ptr, ptr @glad_glBlendEquation, align 8
  tail call void %24(i32 noundef 32778) #56
  br label %43

25:                                               ; preds = %8
  %26 = load ptr, ptr @glad_glBlendFunc, align 8
  tail call void %26(i32 noundef 1, i32 noundef 771) #56
  %27 = load ptr, ptr @glad_glBlendEquation, align 8
  tail call void %27(i32 noundef 32774) #56
  br label %43

28:                                               ; preds = %8
  %29 = load ptr, ptr @glad_glBlendFunc, align 8
  %30 = load i32, ptr getelementptr inbounds nuw (i8, ptr @RLGL, i64 2648), align 8
  %31 = load i32, ptr getelementptr inbounds nuw (i8, ptr @RLGL, i64 2652), align 4
  tail call void %29(i32 noundef %30, i32 noundef %31) #56
  %32 = load ptr, ptr @glad_glBlendEquation, align 8
  %33 = load i32, ptr getelementptr inbounds nuw (i8, ptr @RLGL, i64 2656), align 8
  tail call void %32(i32 noundef %33) #56
  br label %43

34:                                               ; preds = %8
  %35 = load ptr, ptr @glad_glBlendFuncSeparate, align 8
  %36 = load i32, ptr getelementptr inbounds nuw (i8, ptr @RLGL, i64 2660), align 4
  %37 = load i32, ptr getelementptr inbounds nuw (i8, ptr @RLGL, i64 2664), align 8
  %38 = load i32, ptr getelementptr inbounds nuw (i8, ptr @RLGL, i64 2668), align 4
  %39 = load i32, ptr getelementptr inbounds nuw (i8, ptr @RLGL, i64 2672), align 8
  tail call void %35(i32 noundef %36, i32 noundef %37, i32 noundef %38, i32 noundef %39) #56
  %40 = load ptr, ptr @glad_glBlendEquationSeparate, align 8
  %41 = load i32, ptr getelementptr inbounds nuw (i8, ptr @RLGL, i64 2676), align 4
  %42 = load i32, ptr getelementptr inbounds nuw (i8, ptr @RLGL, i64 2680), align 8
  tail call void %40(i32 noundef %41, i32 noundef %42) #56
  br label %43

43:                                               ; preds = %8, %34, %28, %25, %22, %19, %16, %13, %10
  store i32 %0, ptr getelementptr inbounds nuw (i8, ptr @RLGL, i64 2644), align 4
  store i8 0, ptr getelementptr inbounds nuw (i8, ptr @RLGL, i64 2684), align 4
  br label %44

44:                                               ; preds = %3, %43, %5
  ret void
}